; Function Attrs: mustprogress uwtable
define void @_ZN8QuantLib21FdHestonVanillaEngine6updateEv(ptr noundef nonnull align 8 dereferenceable(520) %this) unnamed_addr #8 align 2 personality ptr @__gxx_personality_v0 {
entry:
  %cachedArgs2results_ = getelementptr inbounds nuw i8, ptr %this, i64 496
  %0 = load ptr, ptr %cachedArgs2results_, align 8, !tbaa !216
  %_M_finish.i.i = getelementptr inbounds nuw i8, ptr %this, i64 504
  %1 = load ptr, ptr %_M_finish.i.i, align 8, !tbaa !215
  %tobool.not.i.i = icmp eq ptr %1, %0
  br i1 %tobool.not.i.i, label %_ZNSt6vectorISt4pairIN8QuantLib6Option9argumentsENS1_14OneAssetOption7resultsEESaIS6_EE5clearEv.exit, label %if.then.i.i

if.then.i.i:                                      ; preds = %entry
  invoke void @_ZNSt12_Destroy_auxILb0EE9__destroyIPSt4pairIN8QuantLib6Option9argumentsENS3_14OneAssetOption7resultsEEEEvT_SA_(ptr noundef %0, ptr noundef %1)
          to label %invoke.cont.i.i unwind label %terminate.lpad.i.i

invoke.cont.i.i:                                  ; preds = %if.then.i.i
  store ptr %0, ptr %_M_finish.i.i, align 8, !tbaa !215
  br label %_ZNSt6vectorISt4pairIN8QuantLib6Option9argumentsENS1_14OneAssetOption7resultsEESaIS6_EE5clearEv.exit

terminate.lpad.i.i:                               ; preds = %if.then.i.i
  %2 = landingpad { ptr, i32 }
          catch ptr null
  %3 = extractvalue { ptr, i32 } %2, 0
  tail call void @__clang_call_terminate(ptr %3) #27
  unreachable

_ZNSt6vectorISt4pairIN8QuantLib6Option9argumentsENS1_14OneAssetOption7resultsEESaIS6_EE5clearEv.exit: ; preds = %entry, %invoke.cont.i.i
  tail call void @_ZN8QuantLib10Observable15notifyObserversEv(ptr noundef nonnull align 8 dereferenceable(56) %this)
  ret void
}